LIBRARY "client"
EXPORTS
    AssertValidStringPtr
    ?GetNumSeq_Internal@CStudioHdr@@QBEHXZ
    ?pSeqdesc_Internal@CStudioHdr@@QAEAAUmstudioseqdesc_t@@H@Z
    ?pSeqdesc_Internal@studiohdr_t@@QBEAAUmstudioseqdesc_t@@H@Z
    ?Draw@CMDL@@QAEXABUmatrix3x4_t@@@Z
    ??1CMDL@@QAE@XZ
    ?AddNullTermination@CUtlBuffer@@IAEXH@Z
    ?Init@CTextureReference@@QAEXPBD0_N@Z
    ?V_StringMatchesPattern@@YA_NPBD0H@Z
    ?V_UCS2ToUTF8@@YAHPB_WPADH@Z
    ?V_UnicodeToUTF8@@YAHPB_WPADH@Z
    ?V_UTF8ToUnicode@@YAHPBDPA_WH@Z
    ?AddNullTermination@CUtlBuffer@@IAEXXZ
    ?Init@CMemoryStack@@QAE_NIIII@Z
    ?SaveToFile@KeyValues@@QAE_NPAVIBaseFileSystem@@PBD1@Z
    ?GetFirstSubKey@KeyValues@@QAEPAV1@XZ
    ?GetNextKey@KeyValues@@QAEPAV1@XZ
    ?RecursiveSaveToFile@KeyValues@@AAEXPAVIBaseFileSystem@@PAXPAVCUtlBuffer@@H@Z
    ?Get@CUtlBuffer@@QAEXPAXH@Z
    ??BCUtlString@@QBEPBDXZ
    ?V_MakeAbsolutePath@@YAXPADHPBD1@Z
    ?V_AppendSlash@@YAXPADH@Z
    ?V_FixupPathName@@YAXPADIPBD@Z
    ?CRC32_Init@@YAXPAK@Z
    ?CRC32_ProcessBuffer@@YAXPAKPBXH@Z
    ?CRC32_Final@@YAXPAK@Z
    ?g_BitWriteMasks@@3PAY0CB@KA
